; Function Attrs: nounwind sspstrong uwtable
define internal i64 @ossl_cipher_set_iv(i64 noundef %0, i64 noundef %1) #0 {
  %3 = alloca i64, align 8
  store i64 %1, ptr %3, align 8, !tbaa !6
  %4 = call i64 @rb_string_value(ptr noundef nonnull %3) #11
  %5 = call ptr @rb_check_typeddata(i64 noundef %0, ptr noundef nonnull @ossl_cipher_type) #11
  %.not = icmp eq ptr %5, null
  br i1 %.not, label %6, label %8

6:                                                ; preds = %2
  %7 = load i64, ptr @rb_eRuntimeError, align 8, !tbaa !6
  call void (i64, ptr, ...) @ossl_raise(i64 noundef %7, ptr noundef nonnull @.str) #12
  unreachable

8:                                                ; preds = %2
  %9 = call ptr @EVP_CIPHER_CTX_cipher(ptr noundef nonnull %5) #11
  %10 = call i64 @EVP_CIPHER_get_flags(ptr noundef %9) #11
  %11 = and i64 %10, 2097152
  %.not9 = icmp eq i64 %11, 0
  br i1 %.not9, label %.thread, label %12

12:                                               ; preds = %8
  %13 = call ptr @EVP_CIPHER_CTX_get_app_data(ptr noundef nonnull %5) #11
  %14 = ptrtoint ptr %13 to i64
  %15 = trunc i64 %14 to i32
  %.not10 = icmp eq i32 %15, 0
  br i1 %.not10, label %.thread, label %17

.thread:                                          ; preds = %8, %12
  %16 = call i32 @EVP_CIPHER_CTX_get_iv_length(ptr noundef nonnull %5) #11
  br label %17

17:                                               ; preds = %.thread, %12
  %.1 = phi i32 [ %15, %12 ], [ %16, %.thread ]
  %18 = load i64, ptr %3, align 8, !tbaa !6
  %19 = inttoptr i64 %18 to ptr
  %20 = getelementptr inbounds nuw i8, ptr %19, i64 16
  %21 = load i64, ptr %20, align 8, !tbaa !26
  %22 = sext i32 %.1 to i64
  %.not11 = icmp eq i64 %21, %22
  br i1 %.not11, label %25, label %23

23:                                               ; preds = %17
  %24 = load i64, ptr @rb_eArgError, align 8, !tbaa !6
  call void (i64, ptr, ...) @ossl_raise(i64 noundef %24, ptr noundef nonnull @.str.50, i32 noundef %.1) #12
  unreachable

25:                                               ; preds = %17
  %26 = load i64, ptr %19, align 8, !tbaa !10, !noalias !59
  %27 = and i64 %26, 8192
  %.not.i.i = icmp eq i64 %27, 0
  %28 = getelementptr inbounds nuw i8, ptr %19, i64 24
  br i1 %.not.i.i, label %RSTRING_PTR.exit, label %29

29:                                               ; preds = %25
  %.sroa.2.0.copyload.i = load ptr, ptr %28, align 8
  br label %RSTRING_PTR.exit

RSTRING_PTR.exit:                                 ; preds = %25, %29
  %.sroa.2.0.i = phi ptr [ %.sroa.2.0.copyload.i, %29 ], [ %28, %25 ]
  %30 = call i32 @EVP_CipherInit_ex(ptr noundef nonnull %5, ptr noundef null, ptr noundef null, ptr noundef null, ptr noundef %.sroa.2.0.i, i32 noundef -1) #11
  %.not12 = icmp eq i32 %30, 1
  br i1 %.not12, label %33, label %31

31:                                               ; preds = %RSTRING_PTR.exit
  %32 = load i64, ptr @eCipherError, align 8, !tbaa !6
  call void (i64, ptr, ...) @ossl_raise(i64 noundef %32, ptr noundef null) #12
  unreachable

33:                                               ; preds = %RSTRING_PTR.exit
  %34 = load i64, ptr %3, align 8, !tbaa !6
  ret i64 %34
}